(lp0
(dp1
Varrival
p2
V09:29:00
p3
sVindex
p4
I0
sVjourney_details
p5
(lp6
(dp7
Varr_station_code
p8
S'7171801'
p9
sVarr_station
p10
S'Barcelona Sants '
p11
sVarr_time
p12
S'09:29:00'
p13
sVdept_station_code
p14
S'7100600'
p15
sVtrain
p16
S'03463'
p17
sVdept_station
p18
S'Madrid-Puerta De Atocha'
p19
sVdept_time
p20
S'06:20:00'
p21
sasVdeparture
p22
V06:20:00
p23
sVduration
p24
cdatetime
timedelta
p25
(I0
I11340
I0
tp26
Rp27
sVfareRPHS_List
p28
(lp29
V1
p30
aV2
p31
aV3
p32
aV4
p33
aV5
p34
aV6
p35
aV7
p36
aV8
p37
aV9
p38
asVchanges
p39
I0
sa(dp40
g2
V10:40:00
p41
sg4
I1
sg5
(lp42
(dp43
g8
S'7171801'
p44
sg10
S'Barcelona Sants '
p45
sg12
S'10:40:00'
p46
sg14
S'7100600'
p47
sg16
S'03073'
p48
sg18
S'Madrid-Puerta De Atocha'
p49
sg20
S'07:30:00'
p50
sasg22
V07:30:00
p51
sg24
g25
(I0
I11400
I0
tp52
Rp53
sg28
(lp54
V10
p55
aV11
p56
aV12
p57
aV13
p58
aV14
p59
aV15
p60
aV16
p61
aV17
p62
aV18
p63
asg39
I0
sa(dp64
g2
V11:15:00
p65
sg4
I2
sg5
(lp66
(dp67
g8
S'7171801'
p68
sg10
S'Barcelona Sants '
p69
sg12
S'11:15:00'
p70
sg14
S'7100600'
p71
sg16
S'03083'
p72
sg18
S'Madrid-Puerta De Atocha'
p73
sg20
S'08:30:00'
p74
sasg22
V08:30:00
p75
sg24
g25
(I0
I9900
I0
tp76
Rp77
sg28
(lp78
V19
p79
aV20
p80
aV21
p81
aV22
p82
aV23
p83
aV24
p84
aV25
p85
aV26
p86
aV27
p87
asg39
I0
sa(dp88
g2
V12:34:00
p89
sg4
I3
sg5
(lp90
(dp91
g8
S'7171801'
p92
sg10
S'Barcelona Sants '
p93
sg12
S'12:34:00'
p94
sg14
S'7100600'
p95
sg16
S'03093'
p96
sg18
S'Madrid-Puerta De Atocha'
p97
sg20
S'09:30:00'
p98
sasg22
V09:30:00
p99
sg24
g25
(I0
I11040
I0
tp100
Rp101
sg28
(lp102
V28
p103
aV29
p104
aV30
p105
aV31
p106
aV32
p107
aV33
p108
aV34
p109
aV35
p110
aV36
p111
asg39
I0
sa(dp112
g2
V13:15:00
p113
sg4
I4
sg5
(lp114
(dp115
g8
S'7171801'
p116
sg10
S'Barcelona Sants '
p117
sg12
S'13:15:00'
p118
sg14
S'7100600'
p119
sg16
S'03103'
p120
sg18
S'Madrid-Puerta De Atocha'
p121
sg20
S'10:30:00'
p122
sasg22
V10:30:00
p123
sg24
g25
(I0
I9900
I0
tp124
Rp125
sg28
(lp126
V37
p127
aV38
p128
aV39
p129
aV40
p130
aV41
p131
aV42
p132
asg39
I0
sa(dp133
g2
V14:40:00
p134
sg4
I5
sg5
(lp135
(dp136
g8
S'7171801'
p137
sg10
S'Barcelona Sants '
p138
sg12
S'14:40:00'
p139
sg14
S'7100600'
p140
sg16
S'03113'
p141
sg18
S'Madrid-Puerta De Atocha'
p142
sg20
S'11:30:00'
p143
sasg22
V11:30:00
p144
sg24
g25
(I0
I11400
I0
tp145
Rp146
sg28
(lp147
V43
p148
aV44
p149
aV45
p150
aV46
p151
aV47
p152
aV48
p153
aV49
p154
aV50
p155
aV51
p156
asg39
I0
sa(dp157
g2
V15:30:00
p158
sg4
I6
sg5
(lp159
(dp160
g8
S'7171801'
p161
sg10
S'Barcelona Sants '
p162
sg12
S'15:30:00'
p163
sg14
S'7100600'
p164
sg16
S'03123'
p165
sg18
S'Madrid-Puerta De Atocha'
p166
sg20
S'12:30:00'
p167
sasg22
V12:30:00
p168
sg24
g25
(I0
I10800
I0
tp169
Rp170
sg28
(lp171
V52
p172
aV53
p173
aV54
p174
aV55
p175
aV56
p176
aV57
p177
aV58
p178
aV59
p179
aV60
p180
asg39
I0
sa(dp181
g2
V16:24:00
p182
sg4
I7
sg5
(lp183
(dp184
g8
S'7171801'
p185
sg10
S'Barcelona Sants '
p186
sg12
S'16:24:00'
p187
sg14
S'7100600'
p188
sg16
S'19725'
p189
sg18
S'Madrid-Puerta De Atocha'
p190
sg20
S'13:25:00'
p191
sasg22
V13:25:00
p192
sg24
g25
(I0
I10740
I0
tp193
Rp194
sg28
(lp195
V61
p196
aV62
p197
aV63
p198
aV64
p199
aV65
p200
aV66
p201
aV67
p202
aV68
p203
aV69
p204
asg39
I0
sa(dp205
g2
V16:30:00
p206
sg4
I8
sg5
(lp207
(dp208
g8
S'7171801'
p209
sg10
S'Barcelona Sants '
p210
sg12
S'16:30:00'
p211
sg14
S'7100600'
p212
sg16
S'03141'
p213
sg18
S'Madrid-Puerta De Atocha'
p214
sg20
S'14:00:00'
p215
sasg22
V14:00:00
p216
sg24
g25
(I0
I9000
I0
tp217
Rp218
sg28
(lp219
V70
p220
aV71
p221
aV72
p222
aV73
p223
aV74
p224
aV75
p225
asg39
I0
sa(dp226
g2
V17:21:00
p227
sg4
I9
sg5
(lp228
(dp229
g8
S'7171801'
p230
sg10
S'Barcelona Sants '
p231
sg12
S'17:21:00'
p232
sg14
S'7100600'
p233
sg16
S'03143'
p234
sg18
S'Madrid-Puerta De Atocha'
p235
sg20
S'14:30:00'
p236
sasg22
V14:30:00
p237
sg24
g25
(I0
I10260
I0
tp238
Rp239
sg28
(lp240
V76
p241
aV77
p242
aV78
p243
aV79
p244
aV80
p245
aV81
p246
aV82
p247
aV83
p248
aV84
p249
asg39
I0
sa(dp250
g2
V18:40:00
p251
sg4
I10
sg5
(lp252
(dp253
g8
S'7171801'
p254
sg10
S'Barcelona Sants '
p255
sg12
S'18:40:00'
p256
sg14
S'7100600'
p257
sg16
S'03153'
p258
sg18
S'Madrid-Puerta De Atocha'
p259
sg20
S'15:30:00'
p260
sasg22
V15:30:00
p261
sg24
g25
(I0
I11400
I0
tp262
Rp263
sg28
(lp264
V85
p265
aV86
p266
aV87
p267
aV88
p268
aV89
p269
aV90
p270
aV91
p271
aV92
p272
aV93
p273
asg39
I0
sa(dp274
g2
V18:30:00
p275
sg4
I11
sg5
(lp276
(dp277
g8
S'7171801'
p278
sg10
S'Barcelona Sants '
p279
sg12
S'18:30:00'
p280
sg14
S'7100600'
p281
sg16
S'03161'
p282
sg18
S'Madrid-Puerta De Atocha'
p283
sg20
S'16:00:00'
p284
sasg22
V16:00:00
p285
sg24
g25
(I0
I9000
I0
tp286
Rp287
sg28
(lp288
V94
p289
aV95
p290
aV96
p291
aV97
p292
aV98
p293
aV99
p294
asg39
I0
sa(dp295
g2
V19:15:00
p296
sg4
I12
sg5
(lp297
(dp298
g8
S'7171801'
p299
sg10
S'Barcelona Sants '
p300
sg12
S'19:15:00'
p301
sg14
S'7100600'
p302
sg16
S'03163'
p303
sg18
S'Madrid-Puerta De Atocha'
p304
sg20
S'16:30:00'
p305
sasg22
V16:30:00
p306
sg24
g25
(I0
I9900
I0
tp307
Rp308
sg28
(lp309
V100
p310
aV101
p311
aV102
p312
aV103
p313
aV104
p314
aV105
p315
aV106
p316
asg39
I0
sa(dp317
g2
V19:30:00
p318
sg4
I13
sg5
(lp319
(dp320
g8
S'7171801'
p321
sg10
S'Barcelona Sants '
p322
sg12
S'19:30:00'
p323
sg14
S'7100600'
p324
sg16
S'03171'
p325
sg18
S'Madrid-Puerta De Atocha'
p326
sg20
S'17:00:00'
p327
sasg22
V17:00:00
p328
sg24
g25
(I0
I9000
I0
tp329
Rp330
sg28
(lp331
V107
p332
aV108
p333
aV109
p334
aV110
p335
aV111
p336
aV112
p337
asg39
I0
sa(dp338
g2
V20:40:00
p339
sg4
I14
sg5
(lp340
(dp341
g8
S'7171801'
p342
sg10
S'Barcelona Sants '
p343
sg12
S'20:40:00'
p344
sg14
S'7100600'
p345
sg16
S'03173'
p346
sg18
S'Madrid-Puerta De Atocha'
p347
sg20
S'17:30:00'
p348
sasg22
V17:30:00
p349
sg24
g25
(I0
I11400
I0
tp350
Rp351
sg28
(lp352
V113
p353
aV114
p354
aV115
p355
aV116
p356
aV117
p357
aV118
p358
aV119
p359
asg39
I0
sa(dp360
g2
V20:30:00
p361
sg4
I15
sg5
(lp362
(dp363
g8
S'7171801'
p364
sg10
S'Barcelona Sants '
p365
sg12
S'20:30:00'
p366
sg14
S'7100600'
p367
sg16
S'03181'
p368
sg18
S'Madrid-Puerta De Atocha'
p369
sg20
S'18:00:00'
p370
sasg22
V18:00:00
p371
sg24
g25
(I0
I9000
I0
tp372
Rp373
sg28
(lp374
V120
p375
aV121
p376
aV122
p377
aV123
p378
asg39
I0
sa(dp379
g2
V21:20:00
p380
sg4
I16
sg5
(lp381
(dp382
g8
S'7171801'
p383
sg10
S'Barcelona Sants '
p384
sg12
S'21:20:00'
p385
sg14
S'7100600'
p386
sg16
S'03183'
p387
sg18
S'Madrid-Puerta De Atocha'
p388
sg20
S'18:30:00'
p389
sasg22
V18:30:00
p390
sg24
g25
(I0
I10200
I0
tp391
Rp392
sg28
(lp393
V124
p394
aV125
p395
aV126
p396
aV127
p397
aV128
p398
asg39
I0
sa(dp399
g2
V21:30:00
p400
sg4
I17
sg5
(lp401
(dp402
g8
S'7171801'
p403
sg10
S'Barcelona Sants '
p404
sg12
S'21:30:00'
p405
sg14
S'7100600'
p406
sg16
S'03191'
p407
sg18
S'Madrid-Puerta De Atocha'
p408
sg20
S'19:00:00'
p409
sasg22
V19:00:00
p410
sg24
g25
(I0
I9000
I0
tp411
Rp412
sg28
(lp413
V129
p414
aV130
p415
aV131
p416
aV132
p417
aV133
p418
asg39
I0
sa(dp419
g2
V22:40:00
p420
sg4
I18
sg5
(lp421
(dp422
g8
S'7171801'
p423
sg10
S'Barcelona Sants '
p424
sg12
S'22:40:00'
p425
sg14
S'7100600'
p426
sg16
S'03193'
p427
sg18
S'Madrid-Puerta De Atocha'
p428
sg20
S'19:30:00'
p429
sasg22
V19:30:00
p430
sg24
g25
(I0
I11400
I0
tp431
Rp432
sg28
(lp433
V134
p434
aV135
p435
aV136
p436
aV137
p437
aV138
p438
aV139
p439
aV140
p440
asg39
I0
sa(dp441
g2
V22:30:00
p442
sg4
I19
sg5
(lp443
(dp444
g8
S'7171801'
p445
sg10
S'Barcelona Sants '
p446
sg12
S'22:30:00'
p447
sg14
S'7100600'
p448
sg16
S'03201'
p449
sg18
S'Madrid-Puerta De Atocha'
p450
sg20
S'20:00:00'
p451
sasg22
V20:00:00
p452
sg24
g25
(I0
I9000
I0
tp453
Rp454
sg28
(lp455
V141
p456
aV142
p457
aV143
p458
aV144
p459
aV145
p460
aV146
p461
asg39
I0
sa(dp462
g2
V23:40:00
p463
sg4
I20
sg5
(lp464
(dp465
g8
S'7171801'
p466
sg10
S'Barcelona Sants '
p467
sg12
S'23:40:00'
p468
sg14
S'7100600'
p469
sg16
S'03203'
p470
sg18
S'Madrid-Puerta De Atocha'
p471
sg20
S'20:30:00'
p472
sasg22
V20:30:00
p473
sg24
g25
(I0
I11400
I0
tp474
Rp475
sg28
(lp476
V147
p477
aV148
p478
aV149
p479
aV150
p480
aV151
p481
aV152
p482
aV153
p483
asg39
I0
sa(dp484
g2
V23:55:00
p485
sg4
I21
sg5
(lp486
(dp487
g8
S'7171801'
p488
sg10
S'Barcelona Sants '
p489
sg12
S'23:55:00'
p490
sg14
S'7100600'
p491
sg16
S'03211'
p492
sg18
S'Madrid-Puerta De Atocha'
p493
sg20
S'21:25:00'
p494
sasg22
V21:25:00
p495
sg24
g25
(I0
I9000
I0
tp496
Rp497
sg28
(lp498
V154
p499
aV155
p500
aV156
p501
aV157
p502
aV158
p503
aV159
p504
aV160
p505
aV161
p506
aV162
p507
asg39
I0
sa.